; Function Attrs: mustprogress nofree norecurse nosync nounwind willreturn memory(readwrite, argmem: none, inaccessiblemem: none) uwtable
define dso_local void @updateChildInfo(i32 noundef %0, i64 noundef %1, i64 noundef %2, i64 noundef %3, double noundef %4) local_unnamed_addr #6 {
  %6 = load i64, ptr getelementptr inbounds nuw (i8, ptr @server, i64 2880), align 8, !tbaa !49
  %7 = icmp ugt i64 %1, %6
  br i1 %7, label %8, label %9

8:                                                ; preds = %5
  store i64 %1, ptr getelementptr inbounds nuw (i8, ptr @server, i64 2880), align 8, !tbaa !49
  br label %9

9:                                                ; preds = %8, %5
  %10 = phi i64 [ %1, %8 ], [ %6, %5 ]
  switch i32 %0, label %17 [
    i32 0, label %11
    i32 1, label %14
    i32 2, label %15
    i32 3, label %16
  ]

11:                                               ; preds = %9
  store i64 %1, ptr getelementptr inbounds nuw (i8, ptr @server, i64 2888), align 8, !tbaa !50
  store i64 %2, ptr getelementptr inbounds nuw (i8, ptr @server, i64 2896), align 8, !tbaa !51
  store i64 %3, ptr getelementptr inbounds nuw (i8, ptr @server, i64 2904), align 8, !tbaa !52
  %12 = fcmp une double %4, -1.000000e+00
  br i1 %12, label %13, label %17

13:                                               ; preds = %11
  store double %4, ptr getelementptr inbounds nuw (i8, ptr @server, i64 2944), align 8, !tbaa !53
  br label %17

14:                                               ; preds = %9
  store i64 %10, ptr getelementptr inbounds nuw (i8, ptr @server, i64 2928), align 8, !tbaa !54
  br label %17

15:                                               ; preds = %9
  store i64 %10, ptr getelementptr inbounds nuw (i8, ptr @server, i64 2920), align 8, !tbaa !55
  br label %17

16:                                               ; preds = %9
  store i64 %10, ptr getelementptr inbounds nuw (i8, ptr @server, i64 2936), align 8, !tbaa !56
  br label %17

17:                                               ; preds = %9, %14, %16, %15, %11, %13
  ret void
}